; ModuleID = '11/486.c'
source_filename = "11/486.c"
target datalayout = "e-m:e-p270:32:32-p271:32:32-p272:64:64-i64:64-f80:128-n8:16:32:64-S128"
target triple = "x86_64-pc-linux-gnu"

@__const.main.r = private unnamed_addr constant [12 x i32] [i32 31, i32 28, i32 31, i32 30, i32 31, i32 30, i32 31, i32 31, i32 30, i32 31, i32 30, i32 31], align 16
@.str = private unnamed_addr constant [9 x i8] c"%d %d %d\00", align 1
@.str.1 = private unnamed_addr constant [4 x i8] c"%d\0A\00", align 1

; Function Attrs: noinline nounwind uwtable
define dso_local i32 @rui(i32 %0) #0 {
  %2 = alloca i32, align 4
  %3 = alloca i32, align 4
  store i32 %0, i32* %3, align 4
  %4 = load i32, i32* %3, align 4
  %5 = srem i32 %4, 4
  %6 = icmp ne i32 %5, 0
  br i1 %6, label %7, label %8

7:                                                ; preds = %1
  store i32 0, i32* %2, align 4
  br label %18

8:                                                ; preds = %1
  %9 = load i32, i32* %3, align 4
  %10 = srem i32 %9, 100
  %11 = icmp eq i32 %10, 0
  br i1 %11, label %12, label %17

12:                                               ; preds = %8
  %13 = load i32, i32* %3, align 4
  %14 = srem i32 %13, 400
  %15 = icmp ne i32 %14, 0
  br i1 %15, label %16, label %17

16:                                               ; preds = %12
  store i32 0, i32* %2, align 4
  br label %18

17:                                               ; preds = %12, %8
  store i32 1, i32* %2, align 4
  br label %18

18:                                               ; preds = %17, %16, %7
  %19 = load i32, i32* %2, align 4
  ret i32 %19
}

; Function Attrs: noinline nounwind uwtable
define dso_local void @main() #0 {
  %1 = alloca [12 x i32], align 16
  %2 = alloca i32, align 4
  %3 = alloca i32, align 4
  %4 = alloca i32, align 4
  %5 = alloca i32, align 4
  %6 = alloca i32, align 4
  %7 = bitcast [12 x i32]* %1 to i8*
  call void @llvm.memcpy.p0i8.p0i8.i64(i8* align 16 %7, i8* align 16 bitcast ([12 x i32]* @__const.main.r to i8*), i64 48, i1 false)
  store i32 0, i32* %6, align 4
  %8 = call i32 (i8*, ...) @__isoc99_scanf(i8* getelementptr inbounds ([9 x i8], [9 x i8]* @.str, i64 0, i64 0), i32* %2, i32* %3, i32* %4)
  store i32 0, i32* %5, align 4
  br label %9

9:                                                ; preds = %21, %0
  %10 = load i32, i32* %5, align 4
  %11 = load i32, i32* %3, align 4
  %12 = sub nsw i32 %11, 1
  %13 = icmp slt i32 %10, %12
  br i1 %13, label %14, label %24

14:                                               ; preds = %9
  %15 = load i32, i32* %6, align 4
  %16 = load i32, i32* %5, align 4
  %17 = sext i32 %16 to i64
  %18 = getelementptr inbounds [12 x i32], [12 x i32]* %1, i64 0, i64 %17
  %19 = load i32, i32* %18, align 4
  %20 = add nsw i32 %15, %19
  store i32 %20, i32* %6, align 4
  br label %21

21:                                               ; preds = %14
  %22 = load i32, i32* %5, align 4
  %23 = add nsw i32 %22, 1
  store i32 %23, i32* %5, align 4
  br label %9

24:                                               ; preds = %9
  %25 = load i32, i32* %6, align 4
  %26 = load i32, i32* %4, align 4
  %27 = add nsw i32 %25, %26
  store i32 %27, i32* %6, align 4
  %28 = load i32, i32* %2, align 4
  %29 = call i32 @rui(i32 %28)
  %30 = icmp eq i32 %29, 1
  br i1 %30, label %31, label %37

31:                                               ; preds = %24
  %32 = load i32, i32* %3, align 4
  %33 = icmp sgt i32 %32, 2
  br i1 %33, label %34, label %37

34:                                               ; preds = %31
  %35 = load i32, i32* %6, align 4
  %36 = add nsw i32 %35, 1
  store i32 %36, i32* %6, align 4
  br label %37

37:                                               ; preds = %34, %31, %24
  %38 = load i32, i32* %6, align 4
  %39 = call i32 (i8*, ...) @printf(i8* getelementptr inbounds ([4 x i8], [4 x i8]* @.str.1, i64 0, i64 0), i32 %38)
  ret void
}

; Function Attrs: argmemonly nounwind willreturn
declare void @llvm.memcpy.p0i8.p0i8.i64(i8* noalias nocapture writeonly, i8* noalias nocapture readonly, i64, i1 immarg) #1

declare dso_local i32 @__isoc99_scanf(i8*, ...) #2

declare dso_local i32 @printf(i8*, ...) #2


!llvm.module.flags = !{!0}
!llvm.ident = !{!1}

!0 = !{i32 1, !"wchar_size", i32 4}
!1 = !{!"clang version 10.0.0-4ubuntu1 "}
